; Function Attrs: nounwind uwtable
define i32 @mriStep_SetUserData(ptr noundef %0, ptr noundef %1) local_unnamed_addr #0 {
  %3 = alloca ptr, align 8
  call void @llvm.lifetime.start.p0(i64 8, ptr nonnull %3) #5
  %4 = call i32 @mriStep_AccessStepMem(ptr noundef %0, ptr noundef nonnull @__func__.mriStep_SetUserData, ptr noundef nonnull %3) #5
  %.not = icmp eq i32 %4, 0
  br i1 %.not, label %5, label %12

5:                                                ; preds = %2
  %6 = load ptr, ptr %3, align 8, !tbaa !8
  %7 = getelementptr inbounds nuw i8, ptr %6, i64 352
  %8 = load ptr, ptr %7, align 8, !tbaa !51
  %.not9 = icmp eq ptr %8, null
  br i1 %.not9, label %11, label %9

9:                                                ; preds = %5
  %10 = call i32 @arkLSSetUserData(ptr noundef %0, ptr noundef %1) #5
  %.not10 = icmp eq i32 %10, 0
  br i1 %.not10, label %11, label %12

11:                                               ; preds = %9, %5
  br label %12

12:                                               ; preds = %9, %2, %11
  %.0 = phi i32 [ 0, %11 ], [ %4, %2 ], [ %10, %9 ]
  call void @llvm.lifetime.end.p0(i64 8, ptr nonnull %3) #5
  ret i32 %.0
}